target datalayout = "e-m:e-p270:32:32-p271:32:32-p272:64:64-i64:64-i128:128-f80:128-n8:16:32:64-S128"
target triple = "x86_64-pc-linux-gnu"

@.str.20 = private unnamed_addr constant [21 x i8] c"*INVALID-ENUM-VALUE*\00", align 1

; Function Attrs: mustprogress nounwind uwtable
define hidden noundef ptr @_ZN10JvmtiTrace9enum_nameEPPKcPKii(ptr noundef %0, ptr noundef %1, i32 noundef %2) #1 align 2 {
  %4 = alloca ptr, align 8
  %5 = alloca ptr, align 8
  %6 = alloca ptr, align 8
  %7 = alloca i32, align 4
  %8 = alloca i32, align 4
  store ptr %0, ptr %5, align 8
  store ptr %1, ptr %6, align 8
  store i32 %2, ptr %7, align 4
  store i32 0, ptr %8, align 4
  br label %9

9:                                                ; preds = %31, %3
  %10 = load ptr, ptr %5, align 8
  %11 = load i32, ptr %8, align 4
  %12 = sext i32 %11 to i64
  %13 = getelementptr inbounds ptr, ptr %10, i64 %12
  %14 = load ptr, ptr %13, align 8
  %15 = icmp ne ptr %14, null
  br i1 %15, label %16, label %34

16:                                               ; preds = %9
  %17 = load ptr, ptr %6, align 8
  %18 = load i32, ptr %8, align 4
  %19 = sext i32 %18 to i64
  %20 = getelementptr inbounds i32, ptr %17, i64 %19
  %21 = load i32, ptr %20, align 4
  %22 = load i32, ptr %7, align 4
  %23 = icmp eq i32 %21, %22
  br i1 %23, label %24, label %30

24:                                               ; preds = %16
  %25 = load ptr, ptr %5, align 8
  %26 = load i32, ptr %8, align 4
  %27 = sext i32 %26 to i64
  %28 = getelementptr inbounds ptr, ptr %25, i64 %27
  %29 = load ptr, ptr %28, align 8
  store ptr %29, ptr %4, align 8
  br label %35

30:                                               ; preds = %16
  br label %31

31:                                               ; preds = %30
  %32 = load i32, ptr %8, align 4
  %33 = add nsw i32 %32, 1
  store i32 %33, ptr %8, align 4
  br label %9, !llvm.loop !13

34:                                               ; preds = %9
  store ptr @.str.20, ptr %4, align 8
  br label %35

35:                                               ; preds = %34, %24
  %36 = load ptr, ptr %4, align 8
  ret ptr %36
}