; Function Attrs: mustprogress nofree norecurse nosync nounwind willreturn memory(argmem: read) uwtable
define hidden noundef nonnull ptr @_ZN10JvmtiTrace9enum_nameEPPKcPKii(ptr nocapture noundef readonly %0, ptr nocapture noundef readonly %1, i32 noundef %2) local_unnamed_addr #4 align 2 {
  %4 = load ptr, ptr %0, align 8
  %.not10 = icmp eq ptr %4, null
  br i1 %.not10, label %._crit_edge, label %.lr.ph.preheader

.lr.ph.preheader:                                 ; preds = %3
  %5 = load i32, ptr %1, align 4
  %6 = icmp eq i32 %5, %2
  br i1 %6, label %._crit_edge, label %.lr.ph16

.lr.ph16:                                         ; preds = %.lr.ph.preheader, %.lr.ph
  %indvars.iv15 = phi i64 [ %indvars.iv.next, %.lr.ph ], [ 0, %.lr.ph.preheader ]
  %indvars.iv.next = add nuw nsw i64 %indvars.iv15, 1
  %7 = getelementptr inbounds ptr, ptr %0, i64 %indvars.iv.next
  %8 = load ptr, ptr %7, align 8
  %.not = icmp eq ptr %8, null
  br i1 %.not, label %._crit_edge, label %.lr.ph, !llvm.loop !11

.lr.ph:                                           ; preds = %.lr.ph16
  %9 = getelementptr inbounds i32, ptr %1, i64 %indvars.iv.next
  %10 = load i32, ptr %9, align 4
  %11 = icmp eq i32 %10, %2
  br i1 %11, label %._crit_edge, label %.lr.ph16, !llvm.loop !11

._crit_edge:                                      ; preds = %.lr.ph16, %.lr.ph, %.lr.ph.preheader, %3
  %.08 = phi ptr [ @.str.20, %3 ], [ %4, %.lr.ph.preheader ], [ %8, %.lr.ph ], [ @.str.20, %.lr.ph16 ]
  ret ptr %.08
}